target datalayout = "e-m:e-p270:32:32-p271:32:32-p272:64:64-i64:64-i128:128-f80:128-n8:16:32:64-S128"
target triple = "x86_64-unknown-linux-gnu"

%"struct.facebook::velox::StlAllocator" = type { ptr }
%"struct.facebook::velox::StlAllocator.2" = type { ptr }
%"class.facebook::velox::common::hll::DenseHll" = type { i8, i8, i32, %"class.std::vector", i16, %"class.std::vector.0", %"class.std::vector" }
%"class.std::vector.0" = type { %"struct.std::_Vector_base.1" }
%"struct.std::_Vector_base.1" = type { %"struct.std::_Vector_base<unsigned short, facebook::velox::StlAllocator<unsigned short>>::_Vector_impl" }
%"struct.std::_Vector_base<unsigned short, facebook::velox::StlAllocator<unsigned short>>::_Vector_impl" = type { %"struct.facebook::velox::StlAllocator.2", %"struct.std::_Vector_base<unsigned short, facebook::velox::StlAllocator<unsigned short>>::_Vector_impl_data" }
%"struct.std::_Vector_base<unsigned short, facebook::velox::StlAllocator<unsigned short>>::_Vector_impl_data" = type { ptr, ptr, ptr }
%"class.std::vector" = type { %"struct.std::_Vector_base" }
%"struct.std::_Vector_base" = type { %"struct.std::_Vector_base<signed char, facebook::velox::StlAllocator<signed char>>::_Vector_impl" }
%"struct.std::_Vector_base<signed char, facebook::velox::StlAllocator<signed char>>::_Vector_impl" = type { %"struct.facebook::velox::StlAllocator", %"struct.std::_Vector_base<signed char, facebook::velox::StlAllocator<signed char>>::_Vector_impl_data" }
%"struct.std::_Vector_base<signed char, facebook::velox::StlAllocator<signed char>>::_Vector_impl_data" = type { ptr, ptr, ptr }

; Function Attrs: mustprogress nounwind uwtable
define linkonce_odr noundef nonnull align 1 dereferenceable(1) ptr @_ZNSt6vectorIaN8facebook5velox12StlAllocatorIaEEEixEm(ptr noundef nonnull align 8 dereferenceable(32) %this, i64 noundef %__n) #1 comdat align 2 {
entry:
  %this.addr = alloca ptr, align 8
  %__n.addr = alloca i64, align 8
  store ptr %this, ptr %this.addr, align 8
  store i64 %__n, ptr %__n.addr, align 8
  %this1 = load ptr, ptr %this.addr, align 8
  %_M_impl = getelementptr inbounds %"struct.std::_Vector_base", ptr %this1, i32 0, i32 0
  %add.ptr = getelementptr inbounds i8, ptr %_M_impl, i64 8
  %_M_start = getelementptr inbounds %"struct.std::_Vector_base<signed char, facebook::velox::StlAllocator<signed char>>::_Vector_impl_data", ptr %add.ptr, i32 0, i32 0
  %0 = load ptr, ptr %_M_start, align 8
  %1 = load i64, ptr %__n.addr, align 8
  %add.ptr2 = getelementptr inbounds i8, ptr %0, i64 %1
  ret ptr %add.ptr2
}

; Function Attrs: mustprogress nounwind uwtable
define linkonce_odr noundef nonnull align 2 dereferenceable(2) ptr @_ZNSt6vectorItN8facebook5velox12StlAllocatorItEEEixEm(ptr noundef nonnull align 8 dereferenceable(32) %this, i64 noundef %__n) #1 comdat align 2 {
entry:
  %this.addr = alloca ptr, align 8
  %__n.addr = alloca i64, align 8
  store ptr %this, ptr %this.addr, align 8
  store i64 %__n, ptr %__n.addr, align 8
  %this1 = load ptr, ptr %this.addr, align 8
  %_M_impl = getelementptr inbounds %"struct.std::_Vector_base.1", ptr %this1, i32 0, i32 0
  %add.ptr = getelementptr inbounds i8, ptr %_M_impl, i64 8
  %_M_start = getelementptr inbounds %"struct.std::_Vector_base<unsigned short, facebook::velox::StlAllocator<unsigned short>>::_Vector_impl_data", ptr %add.ptr, i32 0, i32 0
  %0 = load ptr, ptr %_M_start, align 8
  %1 = load i64, ptr %__n.addr, align 8
  %add.ptr2 = getelementptr inbounds i16, ptr %0, i64 %1
  ret ptr %add.ptr2
}

; Function Attrs: mustprogress nounwind uwtable
define void @_ZN8facebook5velox6common3hll8DenseHll14removeOverflowEi(ptr noundef nonnull align 8 dereferenceable(112) %this, i32 noundef %overflowEntry) #1 align 2 {
entry:
  %this.addr = alloca ptr, align 8
  %overflowEntry.addr = alloca i32, align 4
  store ptr %this, ptr %this.addr, align 8
  store i32 %overflowEntry, ptr %overflowEntry.addr, align 4
  %this1 = load ptr, ptr %this.addr, align 8
  %overflowBuckets_ = getelementptr inbounds %"class.facebook::velox::common::hll::DenseHll", ptr %this1, i32 0, i32 5
  %overflows_ = getelementptr inbounds %"class.facebook::velox::common::hll::DenseHll", ptr %this1, i32 0, i32 4
  %0 = load i16, ptr %overflows_, align 8
  %conv = sext i16 %0 to i32
  %sub = sub nsw i32 %conv, 1
  %conv2 = sext i32 %sub to i64
  %call = call noundef nonnull align 2 dereferenceable(2) ptr @_ZNSt6vectorItN8facebook5velox12StlAllocatorItEEEixEm(ptr noundef nonnull align 8 dereferenceable(32) %overflowBuckets_, i64 noundef %conv2) #9
  %1 = load i16, ptr %call, align 2
  %overflowBuckets_3 = getelementptr inbounds %"class.facebook::velox::common::hll::DenseHll", ptr %this1, i32 0, i32 5
  %2 = load i32, ptr %overflowEntry.addr, align 4
  %conv4 = sext i32 %2 to i64
  %call5 = call noundef nonnull align 2 dereferenceable(2) ptr @_ZNSt6vectorItN8facebook5velox12StlAllocatorItEEEixEm(ptr noundef nonnull align 8 dereferenceable(32) %overflowBuckets_3, i64 noundef %conv4) #9
  store i16 %1, ptr %call5, align 2
  %overflowValues_ = getelementptr inbounds %"class.facebook::velox::common::hll::DenseHll", ptr %this1, i32 0, i32 6
  %overflows_6 = getelementptr inbounds %"class.facebook::velox::common::hll::DenseHll", ptr %this1, i32 0, i32 4
  %3 = load i16, ptr %overflows_6, align 8
  %conv7 = sext i16 %3 to i32
  %sub8 = sub nsw i32 %conv7, 1
  %conv9 = sext i32 %sub8 to i64
  %call10 = call noundef nonnull align 1 dereferenceable(1) ptr @_ZNSt6vectorIaN8facebook5velox12StlAllocatorIaEEEixEm(ptr noundef nonnull align 8 dereferenceable(32) %overflowValues_, i64 noundef %conv9) #9
  %4 = load i8, ptr %call10, align 1
  %overflowValues_11 = getelementptr inbounds %"class.facebook::velox::common::hll::DenseHll", ptr %this1, i32 0, i32 6
  %5 = load i32, ptr %overflowEntry.addr, align 4
  %conv12 = sext i32 %5 to i64
  %call13 = call noundef nonnull align 1 dereferenceable(1) ptr @_ZNSt6vectorIaN8facebook5velox12StlAllocatorIaEEEixEm(ptr noundef nonnull align 8 dereferenceable(32) %overflowValues_11, i64 noundef %conv12) #9
  store i8 %4, ptr %call13, align 1
  %overflows_14 = getelementptr inbounds %"class.facebook::velox::common::hll::DenseHll", ptr %this1, i32 0, i32 4
  %6 = load i16, ptr %overflows_14, align 8
  %dec = add i16 %6, -1
  store i16 %dec, ptr %overflows_14, align 8
  ret void
}