; Function Attrs: mustprogress nofree norecurse nosync nounwind willreturn memory(readwrite, inaccessiblemem: none) uwtable
define void @_ZN8facebook5velox6common3hll8DenseHll14removeOverflowEi(ptr noundef nonnull align 8 captures(none) dereferenceable(112) %this, i32 noundef %overflowEntry) local_unnamed_addr #4 align 2 {
entry:
  %overflows_ = getelementptr inbounds nuw i8, ptr %this, i64 40
  %0 = load i16, ptr %overflows_, align 8
  %conv = sext i16 %0 to i64
  %add.ptr.i = getelementptr inbounds nuw i8, ptr %this, i64 56
  %1 = load ptr, ptr %add.ptr.i, align 8
  %2 = getelementptr i16, ptr %1, i64 %conv
  %add.ptr2.i = getelementptr i8, ptr %2, i64 -2
  %3 = load i16, ptr %add.ptr2.i, align 2
  %conv4 = sext i32 %overflowEntry to i64
  %add.ptr2.i3 = getelementptr inbounds i16, ptr %1, i64 %conv4
  store i16 %3, ptr %add.ptr2.i3, align 2
  %4 = load i16, ptr %overflows_, align 8
  %conv7 = sext i16 %4 to i64
  %add.ptr.i4 = getelementptr inbounds nuw i8, ptr %this, i64 88
  %5 = load ptr, ptr %add.ptr.i4, align 8
  %6 = getelementptr i8, ptr %5, i64 %conv7
  %add.ptr2.i5 = getelementptr i8, ptr %6, i64 -1
  %7 = load i8, ptr %add.ptr2.i5, align 1
  %add.ptr2.i7 = getelementptr inbounds i8, ptr %5, i64 %conv4
  store i8 %7, ptr %add.ptr2.i7, align 1
  %8 = load i16, ptr %overflows_, align 8
  %dec = add i16 %8, -1
  store i16 %dec, ptr %overflows_, align 8
  ret void
}